target datalayout = "e-m:e-p270:32:32-p271:32:32-p272:64:64-i64:64-i128:128-f80:128-n8:16:32:64-S128"
target triple = "x86_64-pc-linux-gnu"

@.str = private unnamed_addr constant [124 x i8] c"generated/home/dtcxzyw/WorkSpace/Projects/compilers/llvm-opt-benchmark/bench/libquic/libquic/boringssl/crypto/rsa/padding.c\00", align 1

; Function Attrs: nounwind uwtable
define hidden i32 @RSA_padding_add_PKCS1_type_2(ptr noundef %0, i32 noundef %1, ptr noundef %2, i32 noundef %3) #0 {
  %5 = alloca i32, align 4
  %6 = alloca ptr, align 8
  %7 = alloca i32, align 4
  %8 = alloca ptr, align 8
  %9 = alloca i32, align 4
  %10 = alloca i32, align 4
  %11 = alloca i32, align 4
  %12 = alloca i32, align 4
  %13 = alloca ptr, align 8
  store ptr %0, ptr %6, align 8, !tbaa !6
  store i32 %1, ptr %7, align 4, !tbaa !11
  store ptr %2, ptr %8, align 8, !tbaa !6
  store i32 %3, ptr %9, align 4, !tbaa !11
  call void @llvm.lifetime.start.p0(i64 4, ptr %10) #9
  call void @llvm.lifetime.start.p0(i64 4, ptr %11) #9
  %14 = load i32, ptr %7, align 4, !tbaa !11
  %15 = icmp ult i32 %14, 11
  br i1 %15, label %16, label %17

16:                                               ; preds = %4
  call void @ERR_put_error(i32 noundef 4, i32 noundef 0, i32 noundef 126, ptr noundef @.str, i32 noundef 159)
  store i32 0, ptr %5, align 4
  store i32 1, ptr %12, align 4
  br label %70

17:                                               ; preds = %4
  %18 = load i32, ptr %9, align 4, !tbaa !11
  %19 = load i32, ptr %7, align 4, !tbaa !11
  %20 = sub i32 %19, 11
  %21 = icmp ugt i32 %18, %20
  br i1 %21, label %22, label %23

22:                                               ; preds = %17
  call void @ERR_put_error(i32 noundef 4, i32 noundef 0, i32 noundef 114, ptr noundef @.str, i32 noundef 164)
  store i32 0, ptr %5, align 4
  store i32 1, ptr %12, align 4
  br label %70

23:                                               ; preds = %17
  call void @llvm.lifetime.start.p0(i64 8, ptr %13) #9
  %24 = load ptr, ptr %6, align 8, !tbaa !6
  store ptr %24, ptr %13, align 8, !tbaa !6
  %25 = load ptr, ptr %13, align 8, !tbaa !6
  %26 = getelementptr inbounds nuw i8, ptr %25, i32 1
  store ptr %26, ptr %13, align 8, !tbaa !6
  store i8 0, ptr %25, align 1, !tbaa !13
  %27 = load ptr, ptr %13, align 8, !tbaa !6
  %28 = getelementptr inbounds nuw i8, ptr %27, i32 1
  store ptr %28, ptr %13, align 8, !tbaa !6
  store i8 2, ptr %27, align 1, !tbaa !13
  %29 = load i32, ptr %7, align 4, !tbaa !11
  %30 = sub i32 %29, 3
  %31 = load i32, ptr %9, align 4, !tbaa !11
  %32 = sub i32 %30, %31
  store i32 %32, ptr %11, align 4, !tbaa !11
  %33 = load ptr, ptr %13, align 8, !tbaa !6
  %34 = load i32, ptr %11, align 4, !tbaa !11
  %35 = zext i32 %34 to i64
  %36 = call i32 @RAND_bytes(ptr noundef %33, i64 noundef %35)
  %37 = icmp ne i32 %36, 0
  br i1 %37, label %39, label %38

38:                                               ; preds = %23
  store i32 0, ptr %5, align 4
  store i32 1, ptr %12, align 4
  br label %69

39:                                               ; preds = %23
  store i32 0, ptr %10, align 4, !tbaa !11
  br label %40

40:                                               ; preds = %59, %39
  %41 = load i32, ptr %10, align 4, !tbaa !11
  %42 = load i32, ptr %11, align 4, !tbaa !11
  %43 = icmp ult i32 %41, %42
  br i1 %43, label %44, label %62

44:                                               ; preds = %40
  br label %45

45:                                               ; preds = %55, %44
  %46 = load ptr, ptr %13, align 8, !tbaa !6
  %47 = load i8, ptr %46, align 1, !tbaa !13
  %48 = zext i8 %47 to i32
  %49 = icmp eq i32 %48, 0
  br i1 %49, label %50, label %56

50:                                               ; preds = %45
  %51 = load ptr, ptr %13, align 8, !tbaa !6
  %52 = call i32 @RAND_bytes(ptr noundef %51, i64 noundef 1)
  %53 = icmp ne i32 %52, 0
  br i1 %53, label %55, label %54

54:                                               ; preds = %50
  store i32 0, ptr %5, align 4
  store i32 1, ptr %12, align 4
  br label %69

55:                                               ; preds = %50
  br label %45, !llvm.loop !16

56:                                               ; preds = %45
  %57 = load ptr, ptr %13, align 8, !tbaa !6
  %58 = getelementptr inbounds nuw i8, ptr %57, i32 1
  store ptr %58, ptr %13, align 8, !tbaa !6
  br label %59

59:                                               ; preds = %56
  %60 = load i32, ptr %10, align 4, !tbaa !11
  %61 = add i32 %60, 1
  store i32 %61, ptr %10, align 4, !tbaa !11
  br label %40, !llvm.loop !17

62:                                               ; preds = %40
  %63 = load ptr, ptr %13, align 8, !tbaa !6
  %64 = getelementptr inbounds nuw i8, ptr %63, i32 1
  store ptr %64, ptr %13, align 8, !tbaa !6
  store i8 0, ptr %63, align 1, !tbaa !13
  %65 = load ptr, ptr %13, align 8, !tbaa !6
  %66 = load ptr, ptr %8, align 8, !tbaa !6
  %67 = load i32, ptr %9, align 4, !tbaa !11
  %68 = zext i32 %67 to i64
  call void @llvm.memcpy.p0.p0.i64(ptr align 1 %65, ptr align 1 %66, i64 %68, i1 false)
  store i32 1, ptr %5, align 4
  store i32 1, ptr %12, align 4
  br label %69

69:                                               ; preds = %62, %54, %38
  call void @llvm.lifetime.end.p0(i64 8, ptr %13) #9
  br label %70

70:                                               ; preds = %69, %22, %16
  call void @llvm.lifetime.end.p0(i64 4, ptr %11) #9
  call void @llvm.lifetime.end.p0(i64 4, ptr %10) #9
  %71 = load i32, ptr %5, align 4
  ret i32 %71
}