; Function Attrs: nounwind uwtable
define hidden range(i32 0, 2) i32 @RSA_padding_add_PKCS1_type_2(ptr noundef %0, i32 noundef %1, ptr noundef readonly captures(none) %2, i32 noundef %3) local_unnamed_addr #0 {
  %5 = icmp ult i32 %1, 11
  br i1 %5, label %6, label %7

6:                                                ; preds = %4
  tail call void @ERR_put_error(i32 noundef 4, i32 noundef 0, i32 noundef 126, ptr noundef nonnull @.str, i32 noundef 159) #8
  br label %.loopexit

7:                                                ; preds = %4
  %8 = add i32 %1, -11
  %9 = icmp ugt i32 %3, %8
  br i1 %9, label %10, label %11

10:                                               ; preds = %7
  tail call void @ERR_put_error(i32 noundef 4, i32 noundef 0, i32 noundef 114, ptr noundef nonnull @.str, i32 noundef 164) #8
  br label %.loopexit

11:                                               ; preds = %7
  %12 = getelementptr inbounds nuw i8, ptr %0, i64 1
  store i8 0, ptr %0, align 1, !tbaa !6
  %13 = getelementptr inbounds nuw i8, ptr %0, i64 2
  store i8 2, ptr %12, align 1, !tbaa !6
  %14 = add i32 %1, -3
  %15 = sub i32 %14, %3
  %16 = zext i32 %15 to i64
  %17 = tail call i32 @RAND_bytes(ptr noundef nonnull %13, i64 noundef %16) #8
  %.not = icmp eq i32 %17, 0
  br i1 %.not, label %.loopexit, label %.preheader25

.preheader25:                                     ; preds = %11
  %.not29 = icmp eq i32 %14, %3
  br i1 %.not29, label %._crit_edge, label %.preheader

.preheader:                                       ; preds = %.preheader25, %23
  %.028 = phi ptr [ %24, %23 ], [ %13, %.preheader25 ]
  %.02127 = phi i32 [ %25, %23 ], [ 0, %.preheader25 ]
  br label %18

18:                                               ; preds = %.preheader, %21
  %19 = load i8, ptr %.028, align 1, !tbaa !6
  %20 = icmp eq i8 %19, 0
  br i1 %20, label %21, label %23

21:                                               ; preds = %18
  %22 = tail call i32 @RAND_bytes(ptr noundef nonnull %.028, i64 noundef 1) #8
  %.not24 = icmp eq i32 %22, 0
  br i1 %.not24, label %.loopexit, label %18, !llvm.loop !11

23:                                               ; preds = %18
  %24 = getelementptr inbounds nuw i8, ptr %.028, i64 1
  %25 = add nuw i32 %.02127, 1
  %exitcond.not = icmp eq i32 %25, %15
  br i1 %exitcond.not, label %._crit_edge, label %.preheader, !llvm.loop !12

._crit_edge:                                      ; preds = %23, %.preheader25
  %.0.lcssa = phi ptr [ %13, %.preheader25 ], [ %24, %23 ]
  %26 = getelementptr inbounds nuw i8, ptr %.0.lcssa, i64 1
  store i8 0, ptr %.0.lcssa, align 1, !tbaa !6
  %27 = zext i32 %3 to i64
  tail call void @llvm.memcpy.p0.p0.i64(ptr nonnull align 1 %26, ptr align 1 %2, i64 %27, i1 false)
  br label %.loopexit

.loopexit:                                        ; preds = %21, %._crit_edge, %11, %10, %6
  %.020 = phi i32 [ 0, %6 ], [ 0, %10 ], [ 1, %._crit_edge ], [ 0, %11 ], [ 0, %21 ]
  ret i32 %.020
}